; Function Attrs: null_pointer_is_valid sspstrong uwtable
define void @wmem_strbuf_append_c(ptr noundef captures(none) %0, i8 noundef signext %1) local_unnamed_addr #0 {
  %3 = getelementptr inbounds nuw i8, ptr %0, i64 24
  %4 = load i64, ptr %3, align 8
  %5 = getelementptr inbounds nuw i8, ptr %0, i64 16
  %6 = load i64, ptr %5, align 8
  %.neg = add i64 %6, 1
  %.not.i = icmp eq i64 %4, %.neg
  br i1 %.not.i, label %7, label %wmem_strbuf_grow.exit

7:                                                ; preds = %2
  %8 = add i64 %6, 2
  br label %9

9:                                                ; preds = %9, %7
  %.0.i = phi i64 [ %4, %7 ], [ %11, %9 ]
  %10 = icmp ult i64 %.0.i, %8
  %11 = shl i64 %.0.i, 1
  br i1 %10, label %9, label %12, !llvm.loop !20

12:                                               ; preds = %9
  %13 = icmp eq i64 %.0.i, %4
  br i1 %13, label %wmem_strbuf_grow.exit, label %14

14:                                               ; preds = %12
  %15 = load ptr, ptr %0, align 8
  %16 = getelementptr inbounds nuw i8, ptr %0, i64 8
  %17 = load ptr, ptr %16, align 8
  %18 = tail call ptr @wmem_realloc(ptr noundef %15, ptr noundef %17, i64 noundef %.0.i) #19
  store ptr %18, ptr %16, align 8
  store i64 %.0.i, ptr %3, align 8
  %.pre = load i64, ptr %5, align 8
  br label %wmem_strbuf_grow.exit

wmem_strbuf_grow.exit:                            ; preds = %2, %12, %14
  %19 = phi i64 [ %6, %2 ], [ %6, %12 ], [ %.pre, %14 ]
  %20 = getelementptr inbounds nuw i8, ptr %0, i64 8
  %21 = load ptr, ptr %20, align 8
  %22 = getelementptr i8, ptr %21, i64 %19
  store i8 %1, ptr %22, align 1
  %23 = load i64, ptr %5, align 8
  %24 = add i64 %23, 1
  store i64 %24, ptr %5, align 8
  %25 = load ptr, ptr %20, align 8
  %26 = getelementptr i8, ptr %25, i64 %24
  store i8 0, ptr %26, align 1
  ret void
}